target datalayout = "e-m:e-p270:32:32-p271:32:32-p272:64:64-i64:64-i128:128-f80:128-n8:16:32:64-S128"
target triple = "x86_64-pc-linux-gnu"

%"class.absl::base_internal::ErrnoSaver" = type { i32 }

; Function Attrs: mustprogress nounwind uwtable
define linkonce_odr dso_local void @_ZN4absl13base_internal10ErrnoSaverD2Ev(ptr noundef nonnull align 4 dereferenceable(4) %0) unnamed_addr #2 comdat align 2 {
  %2 = alloca ptr, align 8
  store ptr %0, ptr %2, align 8, !tbaa !11
  %3 = load ptr, ptr %2, align 8
  %4 = getelementptr inbounds nuw %"class.absl::base_internal::ErrnoSaver", ptr %3, i32 0, i32 0
  %5 = load i32, ptr %4, align 4, !tbaa !15
  %6 = call ptr @__errno_location() #10
  store i32 %5, ptr %6, align 4, !tbaa !13
  ret void
}

; Function Attrs: mustprogress nounwind uwtable
define linkonce_odr dso_local void @_ZN4absl13base_internal10ErrnoSaverC2Ev(ptr noundef nonnull align 4 dereferenceable(4) %0) unnamed_addr #2 comdat align 2 {
  %2 = alloca ptr, align 8
  store ptr %0, ptr %2, align 8, !tbaa !11
  %3 = load ptr, ptr %2, align 8
  %4 = getelementptr inbounds nuw %"class.absl::base_internal::ErrnoSaver", ptr %3, i32 0, i32 0
  %5 = call ptr @__errno_location() #10
  %6 = load i32, ptr %5, align 4, !tbaa !13
  store i32 %6, ptr %4, align 4, !tbaa !15
  ret void
}

; Function Attrs: mustprogress uwtable
define dso_local void @_ZN4absl16raw_log_internal25AsyncSignalSafeWriteErrorEPKcm(ptr noundef %0, i64 noundef %1) #0 {
  %3 = alloca ptr, align 8
  %4 = alloca i64, align 8
  %5 = alloca %"class.absl::base_internal::ErrnoSaver", align 4
  store ptr %0, ptr %3, align 8, !tbaa !4
  store i64 %1, ptr %4, align 8, !tbaa !9
  %6 = load i64, ptr %4, align 8, !tbaa !9
  %7 = icmp ne i64 %6, 0
  br i1 %7, label %9, label %8

8:                                                ; preds = %2
  br label %13

9:                                                ; preds = %2
  call void @llvm.lifetime.start.p0(i64 4, ptr %5) #9
  call void @_ZN4absl13base_internal10ErrnoSaverC2Ev(ptr noundef nonnull align 4 dereferenceable(4) %5)
  %10 = load ptr, ptr %3, align 8, !tbaa !4
  %11 = load i64, ptr %4, align 8, !tbaa !9
  %12 = call i64 (i64, ...) @syscall(i64 noundef 1, i32 noundef 2, ptr noundef %10, i64 noundef %11) #9
  call void @_ZN4absl13base_internal10ErrnoSaverD2Ev(ptr noundef nonnull align 4 dereferenceable(4) %5) #9
  call void @llvm.lifetime.end.p0(i64 4, ptr %5) #9
  br label %13

13:                                               ; preds = %9, %8
  ret void
}