; Function Attrs: mustprogress nounwind uwtable
define dso_local void @_ZN4absl16raw_log_internal25AsyncSignalSafeWriteErrorEPKcm(ptr noundef %0, i64 noundef %1) local_unnamed_addr #0 {
  %.not = icmp eq i64 %1, 0
  br i1 %.not, label %7, label %3

3:                                                ; preds = %2
  %4 = tail call ptr @__errno_location() #12
  %5 = load i32, ptr %4, align 4, !tbaa !4
  %6 = tail call i64 (i64, ...) @syscall(i64 noundef 1, i32 noundef 2, ptr noundef %0, i64 noundef %1) #13
  store i32 %5, ptr %4, align 4, !tbaa !4
  br label %7

7:                                                ; preds = %2, %3
  ret void
}